target datalayout = "e-m:e-p270:32:32-p271:32:32-p272:64:64-i64:64-i128:128-f80:128-n8:16:32:64-S128"
target triple = "x86_64-pc-linux-gnu"

%struct.ocb128_context = type { ptr, ptr, ptr, ptr, ptr, i64, i64, %union.OCB_BLOCK, %union.OCB_BLOCK, ptr, %struct.anon }
%union.OCB_BLOCK = type { [2 x i64] }
%struct.anon = type { i64, i64, %union.OCB_BLOCK, %union.OCB_BLOCK, %union.OCB_BLOCK, %union.OCB_BLOCK }

@.str = private unnamed_addr constant [33 x i8] c"../openssl/crypto/modes/ocb128.c\00", align 1

; Function Attrs: nounwind uwtable
define internal void @ocb_block_lshift(ptr noundef %0, i64 noundef %1, ptr noundef %2) #0 {
  %4 = alloca ptr, align 8
  %5 = alloca i64, align 8
  %6 = alloca ptr, align 8
  %7 = alloca i32, align 4
  %8 = alloca i8, align 1
  %9 = alloca i8, align 1
  store ptr %0, ptr %4, align 8, !tbaa !24
  store i64 %1, ptr %5, align 8, !tbaa !26
  store ptr %2, ptr %6, align 8, !tbaa !24
  call void @llvm.lifetime.start.p0(i64 4, ptr %7) #5
  call void @llvm.lifetime.start.p0(i64 1, ptr %8) #5
  store i8 0, ptr %8, align 1, !tbaa !23
  call void @llvm.lifetime.start.p0(i64 1, ptr %9) #5
  store i32 15, ptr %7, align 4, !tbaa !9
  br label %10

10:                                               ; preds = %43, %3
  %11 = load i32, ptr %7, align 4, !tbaa !9
  %12 = icmp sge i32 %11, 0
  br i1 %12, label %13, label %46

13:                                               ; preds = %10
  %14 = load ptr, ptr %4, align 8, !tbaa !24
  %15 = load i32, ptr %7, align 4, !tbaa !9
  %16 = sext i32 %15 to i64
  %17 = getelementptr inbounds i8, ptr %14, i64 %16
  %18 = load i8, ptr %17, align 1, !tbaa !23
  %19 = zext i8 %18 to i32
  %20 = load i64, ptr %5, align 8, !tbaa !26
  %21 = sub i64 8, %20
  %22 = trunc i64 %21 to i32
  %23 = ashr i32 %19, %22
  %24 = trunc i32 %23 to i8
  store i8 %24, ptr %9, align 1, !tbaa !23
  %25 = load ptr, ptr %4, align 8, !tbaa !24
  %26 = load i32, ptr %7, align 4, !tbaa !9
  %27 = sext i32 %26 to i64
  %28 = getelementptr inbounds i8, ptr %25, i64 %27
  %29 = load i8, ptr %28, align 1, !tbaa !23
  %30 = zext i8 %29 to i32
  %31 = load i64, ptr %5, align 8, !tbaa !26
  %32 = trunc i64 %31 to i32
  %33 = shl i32 %30, %32
  %34 = load i8, ptr %8, align 1, !tbaa !23
  %35 = zext i8 %34 to i32
  %36 = or i32 %33, %35
  %37 = trunc i32 %36 to i8
  %38 = load ptr, ptr %6, align 8, !tbaa !24
  %39 = load i32, ptr %7, align 4, !tbaa !9
  %40 = sext i32 %39 to i64
  %41 = getelementptr inbounds i8, ptr %38, i64 %40
  store i8 %37, ptr %41, align 1, !tbaa !23
  %42 = load i8, ptr %9, align 1, !tbaa !23
  store i8 %42, ptr %8, align 1, !tbaa !23
  br label %43

43:                                               ; preds = %13
  %44 = load i32, ptr %7, align 4, !tbaa !9
  %45 = add nsw i32 %44, -1
  store i32 %45, ptr %7, align 4, !tbaa !9
  br label %10, !llvm.loop !29

46:                                               ; preds = %10
  call void @llvm.lifetime.end.p0(i64 1, ptr %9) #5
  call void @llvm.lifetime.end.p0(i64 1, ptr %8) #5
  call void @llvm.lifetime.end.p0(i64 4, ptr %7) #5
  ret void
}

; Function Attrs: nounwind uwtable
define internal void @ocb_double(ptr noundef %0, ptr noundef %1) #0 {
  %3 = alloca ptr, align 8
  %4 = alloca ptr, align 8
  %5 = alloca i8, align 1
  store ptr %0, ptr %3, align 8, !tbaa !3
  store ptr %1, ptr %4, align 8, !tbaa !3
  call void @llvm.lifetime.start.p0(i64 1, ptr %5) #5
  %6 = load ptr, ptr %3, align 8, !tbaa !3
  %7 = getelementptr inbounds [16 x i8], ptr %6, i64 0, i64 0
  %8 = load i8, ptr %7, align 8, !tbaa !23
  %9 = zext i8 %8 to i32
  %10 = and i32 %9, 128
  %11 = trunc i32 %10 to i8
  store i8 %11, ptr %5, align 1, !tbaa !23
  %12 = load i8, ptr %5, align 1, !tbaa !23
  %13 = zext i8 %12 to i32
  %14 = ashr i32 %13, 7
  %15 = trunc i32 %14 to i8
  store i8 %15, ptr %5, align 1, !tbaa !23
  %16 = load i8, ptr %5, align 1, !tbaa !23
  %17 = zext i8 %16 to i32
  %18 = sub nsw i32 0, %17
  %19 = and i32 %18, 135
  %20 = trunc i32 %19 to i8
  store i8 %20, ptr %5, align 1, !tbaa !23
  %21 = load ptr, ptr %3, align 8, !tbaa !3
  %22 = getelementptr inbounds [16 x i8], ptr %21, i64 0, i64 0
  %23 = load ptr, ptr %4, align 8, !tbaa !3
  %24 = getelementptr inbounds [16 x i8], ptr %23, i64 0, i64 0
  call void @ocb_block_lshift(ptr noundef %22, i64 noundef 1, ptr noundef %24)
  %25 = load i8, ptr %5, align 1, !tbaa !23
  %26 = zext i8 %25 to i32
  %27 = load ptr, ptr %4, align 8, !tbaa !3
  %28 = getelementptr inbounds [16 x i8], ptr %27, i64 0, i64 15
  %29 = load i8, ptr %28, align 1, !tbaa !23
  %30 = zext i8 %29 to i32
  %31 = xor i32 %30, %26
  %32 = trunc i32 %31 to i8
  store i8 %32, ptr %28, align 1, !tbaa !23
  call void @llvm.lifetime.end.p0(i64 1, ptr %5) #5
  ret void
}

; Function Attrs: nounwind uwtable
define i32 @CRYPTO_ocb128_init(ptr noundef %0, ptr noundef %1, ptr noundef %2, ptr noundef %3, ptr noundef %4, ptr noundef %5) #0 {
  %7 = alloca i32, align 4
  %8 = alloca ptr, align 8
  %9 = alloca ptr, align 8
  %10 = alloca ptr, align 8
  %11 = alloca ptr, align 8
  %12 = alloca ptr, align 8
  %13 = alloca ptr, align 8
  store ptr %0, ptr %8, align 8, !tbaa !7
  store ptr %1, ptr %9, align 8, !tbaa !3
  store ptr %2, ptr %10, align 8, !tbaa !3
  store ptr %3, ptr %11, align 8, !tbaa !3
  store ptr %4, ptr %12, align 8, !tbaa !3
  store ptr %5, ptr %13, align 8, !tbaa !3
  %14 = load ptr, ptr %8, align 8, !tbaa !7
  call void @llvm.memset.p0.i64(ptr align 8 %14, i8 0, i64 176, i1 false)
  %15 = load ptr, ptr %8, align 8, !tbaa !7
  %16 = getelementptr inbounds nuw %struct.ocb128_context, ptr %15, i32 0, i32 5
  store i64 0, ptr %16, align 8, !tbaa !11
  %17 = load ptr, ptr %8, align 8, !tbaa !7
  %18 = getelementptr inbounds nuw %struct.ocb128_context, ptr %17, i32 0, i32 6
  store i64 5, ptr %18, align 8, !tbaa !16
  %19 = load ptr, ptr %8, align 8, !tbaa !7
  %20 = getelementptr inbounds nuw %struct.ocb128_context, ptr %19, i32 0, i32 6
  %21 = load i64, ptr %20, align 8, !tbaa !16
  %22 = mul i64 %21, 16
  %23 = call noalias ptr @CRYPTO_malloc(i64 noundef %22, ptr noundef @.str, i32 noundef 158)
  %24 = load ptr, ptr %8, align 8, !tbaa !7
  %25 = getelementptr inbounds nuw %struct.ocb128_context, ptr %24, i32 0, i32 9
  store ptr %23, ptr %25, align 8, !tbaa !17
  %26 = icmp eq ptr %23, null
  br i1 %26, label %27, label %28

27:                                               ; preds = %6
  store i32 0, ptr %7, align 4
  br label %98

28:                                               ; preds = %6
  %29 = load ptr, ptr %11, align 8, !tbaa !3
  %30 = load ptr, ptr %8, align 8, !tbaa !7
  %31 = getelementptr inbounds nuw %struct.ocb128_context, ptr %30, i32 0, i32 0
  store ptr %29, ptr %31, align 8, !tbaa !18
  %32 = load ptr, ptr %12, align 8, !tbaa !3
  %33 = load ptr, ptr %8, align 8, !tbaa !7
  %34 = getelementptr inbounds nuw %struct.ocb128_context, ptr %33, i32 0, i32 1
  store ptr %32, ptr %34, align 8, !tbaa !19
  %35 = load ptr, ptr %13, align 8, !tbaa !3
  %36 = load ptr, ptr %8, align 8, !tbaa !7
  %37 = getelementptr inbounds nuw %struct.ocb128_context, ptr %36, i32 0, i32 4
  store ptr %35, ptr %37, align 8, !tbaa !20
  %38 = load ptr, ptr %9, align 8, !tbaa !3
  %39 = load ptr, ptr %8, align 8, !tbaa !7
  %40 = getelementptr inbounds nuw %struct.ocb128_context, ptr %39, i32 0, i32 2
  store ptr %38, ptr %40, align 8, !tbaa !21
  %41 = load ptr, ptr %10, align 8, !tbaa !3
  %42 = load ptr, ptr %8, align 8, !tbaa !7
  %43 = getelementptr inbounds nuw %struct.ocb128_context, ptr %42, i32 0, i32 3
  store ptr %41, ptr %43, align 8, !tbaa !22
  %44 = load ptr, ptr %8, align 8, !tbaa !7
  %45 = getelementptr inbounds nuw %struct.ocb128_context, ptr %44, i32 0, i32 0
  %46 = load ptr, ptr %45, align 8, !tbaa !18
  %47 = load ptr, ptr %8, align 8, !tbaa !7
  %48 = getelementptr inbounds nuw %struct.ocb128_context, ptr %47, i32 0, i32 7
  %49 = getelementptr inbounds [16 x i8], ptr %48, i64 0, i64 0
  %50 = load ptr, ptr %8, align 8, !tbaa !7
  %51 = getelementptr inbounds nuw %struct.ocb128_context, ptr %50, i32 0, i32 7
  %52 = getelementptr inbounds [16 x i8], ptr %51, i64 0, i64 0
  %53 = load ptr, ptr %8, align 8, !tbaa !7
  %54 = getelementptr inbounds nuw %struct.ocb128_context, ptr %53, i32 0, i32 2
  %55 = load ptr, ptr %54, align 8, !tbaa !21
  call void %46(ptr noundef %49, ptr noundef %52, ptr noundef %55)
  %56 = load ptr, ptr %8, align 8, !tbaa !7
  %57 = getelementptr inbounds nuw %struct.ocb128_context, ptr %56, i32 0, i32 7
  %58 = load ptr, ptr %8, align 8, !tbaa !7
  %59 = getelementptr inbounds nuw %struct.ocb128_context, ptr %58, i32 0, i32 8
  call void @ocb_double(ptr noundef %57, ptr noundef %59)
  %60 = load ptr, ptr %8, align 8, !tbaa !7
  %61 = getelementptr inbounds nuw %struct.ocb128_context, ptr %60, i32 0, i32 8
  %62 = load ptr, ptr %8, align 8, !tbaa !7
  %63 = getelementptr inbounds nuw %struct.ocb128_context, ptr %62, i32 0, i32 9
  %64 = load ptr, ptr %63, align 8, !tbaa !17
  call void @ocb_double(ptr noundef %61, ptr noundef %64)
  %65 = load ptr, ptr %8, align 8, !tbaa !7
  %66 = getelementptr inbounds nuw %struct.ocb128_context, ptr %65, i32 0, i32 9
  %67 = load ptr, ptr %66, align 8, !tbaa !17
  %68 = load ptr, ptr %8, align 8, !tbaa !7
  %69 = getelementptr inbounds nuw %struct.ocb128_context, ptr %68, i32 0, i32 9
  %70 = load ptr, ptr %69, align 8, !tbaa !17
  %71 = getelementptr inbounds %union.OCB_BLOCK, ptr %70, i64 1
  call void @ocb_double(ptr noundef %67, ptr noundef %71)
  %72 = load ptr, ptr %8, align 8, !tbaa !7
  %73 = getelementptr inbounds nuw %struct.ocb128_context, ptr %72, i32 0, i32 9
  %74 = load ptr, ptr %73, align 8, !tbaa !17
  %75 = getelementptr inbounds %union.OCB_BLOCK, ptr %74, i64 1
  %76 = load ptr, ptr %8, align 8, !tbaa !7
  %77 = getelementptr inbounds nuw %struct.ocb128_context, ptr %76, i32 0, i32 9
  %78 = load ptr, ptr %77, align 8, !tbaa !17
  %79 = getelementptr inbounds %union.OCB_BLOCK, ptr %78, i64 2
  call void @ocb_double(ptr noundef %75, ptr noundef %79)
  %80 = load ptr, ptr %8, align 8, !tbaa !7
  %81 = getelementptr inbounds nuw %struct.ocb128_context, ptr %80, i32 0, i32 9
  %82 = load ptr, ptr %81, align 8, !tbaa !17
  %83 = getelementptr inbounds %union.OCB_BLOCK, ptr %82, i64 2
  %84 = load ptr, ptr %8, align 8, !tbaa !7
  %85 = getelementptr inbounds nuw %struct.ocb128_context, ptr %84, i32 0, i32 9
  %86 = load ptr, ptr %85, align 8, !tbaa !17
  %87 = getelementptr inbounds %union.OCB_BLOCK, ptr %86, i64 3
  call void @ocb_double(ptr noundef %83, ptr noundef %87)
  %88 = load ptr, ptr %8, align 8, !tbaa !7
  %89 = getelementptr inbounds nuw %struct.ocb128_context, ptr %88, i32 0, i32 9
  %90 = load ptr, ptr %89, align 8, !tbaa !17
  %91 = getelementptr inbounds %union.OCB_BLOCK, ptr %90, i64 3
  %92 = load ptr, ptr %8, align 8, !tbaa !7
  %93 = getelementptr inbounds nuw %struct.ocb128_context, ptr %92, i32 0, i32 9
  %94 = load ptr, ptr %93, align 8, !tbaa !17
  %95 = getelementptr inbounds %union.OCB_BLOCK, ptr %94, i64 4
  call void @ocb_double(ptr noundef %91, ptr noundef %95)
  %96 = load ptr, ptr %8, align 8, !tbaa !7
  %97 = getelementptr inbounds nuw %struct.ocb128_context, ptr %96, i32 0, i32 5
  store i64 4, ptr %97, align 8, !tbaa !11
  store i32 1, ptr %7, align 4
  br label %98

98:                                               ; preds = %28, %27
  %99 = load i32, ptr %7, align 4
  ret i32 %99
}