; Function Attrs: nounwind uwtable
define range(i32 0, 2) i32 @CRYPTO_ocb128_init(ptr noundef initializes((0, 176)) %0, ptr noundef %1, ptr noundef %2, ptr noundef %3, ptr noundef %4, ptr noundef %5) local_unnamed_addr #0 {
  %7 = getelementptr inbounds nuw i8, ptr %0, i64 40
  %8 = getelementptr inbounds nuw i8, ptr %0, i64 48
  tail call void @llvm.memset.p0.i64(ptr noundef nonnull align 8 dereferenceable(176) %0, i8 0, i64 176, i1 false)
  store i64 5, ptr %8, align 8, !tbaa !3
  %9 = tail call noalias ptr @CRYPTO_malloc(i64 noundef 80, ptr noundef nonnull @.str, i32 noundef 158) #6
  %10 = getelementptr inbounds nuw i8, ptr %0, i64 88
  store ptr %9, ptr %10, align 8, !tbaa !11
  %11 = icmp eq ptr %9, null
  br i1 %11, label %103, label %12

12:                                               ; preds = %6
  store ptr %3, ptr %0, align 8, !tbaa !12
  %13 = getelementptr inbounds nuw i8, ptr %0, i64 8
  store ptr %4, ptr %13, align 8, !tbaa !13
  %14 = getelementptr inbounds nuw i8, ptr %0, i64 32
  store ptr %5, ptr %14, align 8, !tbaa !14
  %15 = getelementptr inbounds nuw i8, ptr %0, i64 16
  store ptr %1, ptr %15, align 8, !tbaa !15
  %16 = getelementptr inbounds nuw i8, ptr %0, i64 24
  store ptr %2, ptr %16, align 8, !tbaa !16
  %17 = getelementptr inbounds nuw i8, ptr %0, i64 56
  tail call void %3(ptr noundef nonnull %17, ptr noundef nonnull %17, ptr noundef %1) #6
  %18 = getelementptr inbounds nuw i8, ptr %0, i64 72
  %19 = load i8, ptr %17, align 8, !tbaa !17
  br label %20

20:                                               ; preds = %20, %12
  %indvars.iv.i.i = phi i64 [ 15, %12 ], [ %indvars.iv.next.i.i, %20 ]
  %.01112.i.i = phi i8 [ 0, %12 ], [ %23, %20 ]
  %21 = getelementptr inbounds nuw i8, ptr %17, i64 %indvars.iv.i.i
  %22 = load i8, ptr %21, align 1, !tbaa !17
  %23 = lshr i8 %22, 7
  %24 = shl i8 %22, 1
  %25 = or disjoint i8 %24, %.01112.i.i
  %26 = getelementptr inbounds nuw i8, ptr %18, i64 %indvars.iv.i.i
  store i8 %25, ptr %26, align 1, !tbaa !17
  %indvars.iv.next.i.i = add nsw i64 %indvars.iv.i.i, -1
  %.not.i.i = icmp eq i64 %indvars.iv.i.i, 0
  br i1 %.not.i.i, label %ocb_double.exit, label %20, !llvm.loop !18

ocb_double.exit:                                  ; preds = %20
  %isneg.i = icmp slt i8 %19, 0
  %27 = select i1 %isneg.i, i8 -121, i8 0
  %28 = getelementptr inbounds nuw i8, ptr %0, i64 87
  %29 = load i8, ptr %28, align 1, !tbaa !17
  %30 = xor i8 %29, %27
  store i8 %30, ptr %28, align 1, !tbaa !17
  %31 = load ptr, ptr %10, align 8, !tbaa !11
  %32 = load i8, ptr %18, align 8, !tbaa !17
  br label %33

33:                                               ; preds = %33, %ocb_double.exit
  %indvars.iv.i.i32 = phi i64 [ 15, %ocb_double.exit ], [ %indvars.iv.next.i.i34, %33 ]
  %.01112.i.i33 = phi i8 [ 0, %ocb_double.exit ], [ %36, %33 ]
  %34 = getelementptr inbounds nuw i8, ptr %18, i64 %indvars.iv.i.i32
  %35 = load i8, ptr %34, align 1, !tbaa !17
  %36 = lshr i8 %35, 7
  %37 = shl i8 %35, 1
  %38 = or disjoint i8 %37, %.01112.i.i33
  %39 = getelementptr inbounds nuw i8, ptr %31, i64 %indvars.iv.i.i32
  store i8 %38, ptr %39, align 1, !tbaa !17
  %indvars.iv.next.i.i34 = add nsw i64 %indvars.iv.i.i32, -1
  %.not.i.i35 = icmp eq i64 %indvars.iv.i.i32, 0
  br i1 %.not.i.i35, label %ocb_double.exit37, label %33, !llvm.loop !18

ocb_double.exit37:                                ; preds = %33
  %isneg.i36 = icmp slt i8 %32, 0
  %40 = select i1 %isneg.i36, i8 -121, i8 0
  %41 = getelementptr inbounds nuw i8, ptr %31, i64 15
  %42 = load i8, ptr %41, align 1, !tbaa !17
  %43 = xor i8 %42, %40
  store i8 %43, ptr %41, align 1, !tbaa !17
  %44 = load ptr, ptr %10, align 8, !tbaa !11
  %45 = getelementptr inbounds nuw i8, ptr %44, i64 16
  %46 = load i8, ptr %44, align 8, !tbaa !17
  br label %47

47:                                               ; preds = %47, %ocb_double.exit37
  %indvars.iv.i.i38 = phi i64 [ 15, %ocb_double.exit37 ], [ %indvars.iv.next.i.i40, %47 ]
  %.01112.i.i39 = phi i8 [ 0, %ocb_double.exit37 ], [ %50, %47 ]
  %48 = getelementptr inbounds nuw i8, ptr %44, i64 %indvars.iv.i.i38
  %49 = load i8, ptr %48, align 1, !tbaa !17
  %50 = lshr i8 %49, 7
  %51 = shl i8 %49, 1
  %52 = or disjoint i8 %51, %.01112.i.i39
  %53 = getelementptr inbounds nuw i8, ptr %45, i64 %indvars.iv.i.i38
  store i8 %52, ptr %53, align 1, !tbaa !17
  %indvars.iv.next.i.i40 = add nsw i64 %indvars.iv.i.i38, -1
  %.not.i.i41 = icmp eq i64 %indvars.iv.i.i38, 0
  br i1 %.not.i.i41, label %ocb_double.exit43, label %47, !llvm.loop !18

ocb_double.exit43:                                ; preds = %47
  %isneg.i42 = icmp slt i8 %46, 0
  %54 = select i1 %isneg.i42, i8 -121, i8 0
  %55 = getelementptr inbounds nuw i8, ptr %44, i64 31
  %56 = load i8, ptr %55, align 1, !tbaa !17
  %57 = xor i8 %56, %54
  store i8 %57, ptr %55, align 1, !tbaa !17
  %58 = load ptr, ptr %10, align 8, !tbaa !11
  %59 = getelementptr inbounds nuw i8, ptr %58, i64 16
  %60 = getelementptr inbounds nuw i8, ptr %58, i64 32
  %61 = load i8, ptr %59, align 8, !tbaa !17
  br label %62

62:                                               ; preds = %62, %ocb_double.exit43
  %indvars.iv.i.i44 = phi i64 [ 15, %ocb_double.exit43 ], [ %indvars.iv.next.i.i46, %62 ]
  %.01112.i.i45 = phi i8 [ 0, %ocb_double.exit43 ], [ %65, %62 ]
  %63 = getelementptr inbounds nuw i8, ptr %59, i64 %indvars.iv.i.i44
  %64 = load i8, ptr %63, align 1, !tbaa !17
  %65 = lshr i8 %64, 7
  %66 = shl i8 %64, 1
  %67 = or disjoint i8 %66, %.01112.i.i45
  %68 = getelementptr inbounds nuw i8, ptr %60, i64 %indvars.iv.i.i44
  store i8 %67, ptr %68, align 1, !tbaa !17
  %indvars.iv.next.i.i46 = add nsw i64 %indvars.iv.i.i44, -1
  %.not.i.i47 = icmp eq i64 %indvars.iv.i.i44, 0
  br i1 %.not.i.i47, label %ocb_double.exit49, label %62, !llvm.loop !18

ocb_double.exit49:                                ; preds = %62
  %isneg.i48 = icmp slt i8 %61, 0
  %69 = select i1 %isneg.i48, i8 -121, i8 0
  %70 = getelementptr inbounds nuw i8, ptr %58, i64 47
  %71 = load i8, ptr %70, align 1, !tbaa !17
  %72 = xor i8 %71, %69
  store i8 %72, ptr %70, align 1, !tbaa !17
  %73 = load ptr, ptr %10, align 8, !tbaa !11
  %74 = getelementptr inbounds nuw i8, ptr %73, i64 32
  %75 = getelementptr inbounds nuw i8, ptr %73, i64 48
  %76 = load i8, ptr %74, align 8, !tbaa !17
  br label %77

77:                                               ; preds = %77, %ocb_double.exit49
  %indvars.iv.i.i50 = phi i64 [ 15, %ocb_double.exit49 ], [ %indvars.iv.next.i.i52, %77 ]
  %.01112.i.i51 = phi i8 [ 0, %ocb_double.exit49 ], [ %80, %77 ]
  %78 = getelementptr inbounds nuw i8, ptr %74, i64 %indvars.iv.i.i50
  %79 = load i8, ptr %78, align 1, !tbaa !17
  %80 = lshr i8 %79, 7
  %81 = shl i8 %79, 1
  %82 = or disjoint i8 %81, %.01112.i.i51
  %83 = getelementptr inbounds nuw i8, ptr %75, i64 %indvars.iv.i.i50
  store i8 %82, ptr %83, align 1, !tbaa !17
  %indvars.iv.next.i.i52 = add nsw i64 %indvars.iv.i.i50, -1
  %.not.i.i53 = icmp eq i64 %indvars.iv.i.i50, 0
  br i1 %.not.i.i53, label %ocb_double.exit55, label %77, !llvm.loop !18

ocb_double.exit55:                                ; preds = %77
  %isneg.i54 = icmp slt i8 %76, 0
  %84 = select i1 %isneg.i54, i8 -121, i8 0
  %85 = getelementptr inbounds nuw i8, ptr %73, i64 63
  %86 = load i8, ptr %85, align 1, !tbaa !17
  %87 = xor i8 %86, %84
  store i8 %87, ptr %85, align 1, !tbaa !17
  %88 = load ptr, ptr %10, align 8, !tbaa !11
  %89 = getelementptr inbounds nuw i8, ptr %88, i64 48
  %90 = getelementptr inbounds nuw i8, ptr %88, i64 64
  %91 = load i8, ptr %89, align 8, !tbaa !17
  br label %92

92:                                               ; preds = %92, %ocb_double.exit55
  %indvars.iv.i.i56 = phi i64 [ 15, %ocb_double.exit55 ], [ %indvars.iv.next.i.i58, %92 ]
  %.01112.i.i57 = phi i8 [ 0, %ocb_double.exit55 ], [ %95, %92 ]
  %93 = getelementptr inbounds nuw i8, ptr %89, i64 %indvars.iv.i.i56
  %94 = load i8, ptr %93, align 1, !tbaa !17
  %95 = lshr i8 %94, 7
  %96 = shl i8 %94, 1
  %97 = or disjoint i8 %96, %.01112.i.i57
  %98 = getelementptr inbounds nuw i8, ptr %90, i64 %indvars.iv.i.i56
  store i8 %97, ptr %98, align 1, !tbaa !17
  %indvars.iv.next.i.i58 = add nsw i64 %indvars.iv.i.i56, -1
  %.not.i.i59 = icmp eq i64 %indvars.iv.i.i56, 0
  br i1 %.not.i.i59, label %ocb_double.exit61, label %92, !llvm.loop !18

ocb_double.exit61:                                ; preds = %92
  %isneg.i60 = icmp slt i8 %91, 0
  %99 = select i1 %isneg.i60, i8 -121, i8 0
  %100 = getelementptr inbounds nuw i8, ptr %88, i64 79
  %101 = load i8, ptr %100, align 1, !tbaa !17
  %102 = xor i8 %101, %99
  store i8 %102, ptr %100, align 1, !tbaa !17
  store i64 4, ptr %7, align 8, !tbaa !20
  br label %103

103:                                              ; preds = %6, %ocb_double.exit61
  %.0 = phi i32 [ 1, %ocb_double.exit61 ], [ 0, %6 ]
  ret i32 %.0
}